; Function Attrs: mustprogress uwtable
define hidden noundef nonnull align 8 dereferenceable(192) ptr @_ZN19OpenColorIO_v2_4dev20GradingPrimaryOpDataaSERKS0_(ptr noundef nonnull returned align 8 dereferenceable(192) %this, ptr noundef nonnull align 8 dereferenceable(192) %rhs) local_unnamed_addr #3 align 2 {
entry:
  %cmp = icmp eq ptr %this, %rhs
  br i1 %cmp, label %return, label %if.end

if.end:                                           ; preds = %entry
  %call = tail call noundef nonnull align 8 dereferenceable(168) ptr @_ZN19OpenColorIO_v2_4dev6OpDataaSERKS0_(ptr noundef nonnull align 8 dereferenceable(168) %this, ptr noundef nonnull align 8 dereferenceable(168) %rhs)
  %m_style = getelementptr inbounds i8, ptr %rhs, i64 168
  %0 = load i32, ptr %m_style, align 8
  %m_style2 = getelementptr inbounds i8, ptr %this, i64 168
  store i32 %0, ptr %m_style2, align 8
  %m_value = getelementptr inbounds i8, ptr %this, i64 176
  %1 = load ptr, ptr %m_value, align 8
  %m_value4 = getelementptr inbounds i8, ptr %rhs, i64 176
  %2 = load ptr, ptr %m_value4, align 8
  %m_direction.i = getelementptr inbounds i8, ptr %2, i64 28
  %3 = load i32, ptr %m_direction.i, align 4
  tail call void @_ZN19OpenColorIO_v2_4dev33DynamicPropertyGradingPrimaryImpl12setDirectionENS_18TransformDirectionE(ptr noundef nonnull align 8 dereferenceable(392) %1, i32 noundef %3) #18
  %4 = load ptr, ptr %m_value, align 8
  %5 = load ptr, ptr %m_value4, align 8
  %vtable = load ptr, ptr %5, align 8
  %vfn = getelementptr inbounds i8, ptr %vtable, i64 24
  %6 = load ptr, ptr %vfn, align 8
  %call11 = tail call noundef nonnull align 8 dereferenceable(272) ptr %6(ptr noundef nonnull align 8 dereferenceable(392) %5)
  %vtable12 = load ptr, ptr %4, align 8
  %vfn13 = getelementptr inbounds i8, ptr %vtable12, i64 32
  %7 = load ptr, ptr %vfn13, align 8
  tail call void %7(ptr noundef nonnull align 8 dereferenceable(392) %4, ptr noundef nonnull align 8 dereferenceable(272) %call11)
  %8 = load ptr, ptr %m_value4, align 8
  %m_isDynamic.i = getelementptr inbounds i8, ptr %8, i64 12
  %9 = load i8, ptr %m_isDynamic.i, align 4
  %10 = and i8 %9, 1
  %tobool.i.not = icmp eq i8 %10, 0
  br i1 %tobool.i.not, label %return, label %if.then17

if.then17:                                        ; preds = %if.end
  %11 = load ptr, ptr %m_value, align 8
  %m_isDynamic.i6 = getelementptr inbounds i8, ptr %11, i64 12
  store i8 1, ptr %m_isDynamic.i6, align 4
  br label %return

return:                                           ; preds = %if.end, %if.then17, %entry
  ret ptr %this
}